target datalayout = "e-m:e-p270:32:32-p271:32:32-p272:64:64-i64:64-i128:128-f80:128-n8:16:32:64-S128"
target triple = "x86_64-unknown-linux-gnu"

%"class.(anonymous namespace)::HelpPrinter" = type <{ ptr, i8, [7 x i8] }>
%"class.(anonymous namespace)::CategorizedHelpPrinter" = type { %"class.(anonymous namespace)::HelpPrinter.base", [7 x i8] }
%"class.(anonymous namespace)::HelpPrinter.base" = type <{ ptr, i8 }>

@_ZL26UncategorizedNormalPrinter = internal global %"class.(anonymous namespace)::HelpPrinter" zeroinitializer, align 8
@_ZL26UncategorizedHiddenPrinter = internal global %"class.(anonymous namespace)::HelpPrinter" zeroinitializer, align 8
@_ZL24CategorizedNormalPrinter = internal global %"class.(anonymous namespace)::CategorizedHelpPrinter" zeroinitializer, align 8
@_ZL24CategorizedHiddenPrinter = internal global %"class.(anonymous namespace)::CategorizedHelpPrinter" zeroinitializer, align 8

; Function Attrs: mustprogress nounwind uwtable
define hidden void @_ZN4llvh2cl16PrintHelpMessageEbb(i1 noundef zeroext %Hidden, i1 noundef zeroext %Categorized) #0 {
entry:
  %Hidden.addr = alloca i8, align 1
  %Categorized.addr = alloca i8, align 1
  %frombool = zext i1 %Hidden to i8
  store i8 %frombool, ptr %Hidden.addr, align 1
  %frombool1 = zext i1 %Categorized to i8
  store i8 %frombool1, ptr %Categorized.addr, align 1
  %0 = load i8, ptr %Hidden.addr, align 1
  %tobool = trunc i8 %0 to i1
  br i1 %tobool, label %if.else, label %land.lhs.true

land.lhs.true:                                    ; preds = %entry
  %1 = load i8, ptr %Categorized.addr, align 1
  %tobool2 = trunc i8 %1 to i1
  br i1 %tobool2, label %if.else, label %if.then

if.then:                                          ; preds = %land.lhs.true
  call void @_ZN12_GLOBAL__N_111HelpPrinter9printHelpEv(ptr noundef nonnull align 8 dereferenceable(9) @_ZL26UncategorizedNormalPrinter)
  br label %if.end14

if.else:                                          ; preds = %land.lhs.true, %entry
  %2 = load i8, ptr %Hidden.addr, align 1
  %tobool3 = trunc i8 %2 to i1
  br i1 %tobool3, label %if.else7, label %land.lhs.true4

land.lhs.true4:                                   ; preds = %if.else
  %3 = load i8, ptr %Categorized.addr, align 1
  %tobool5 = trunc i8 %3 to i1
  br i1 %tobool5, label %if.then6, label %if.else7

if.then6:                                         ; preds = %land.lhs.true4
  call void @_ZN12_GLOBAL__N_111HelpPrinter9printHelpEv(ptr noundef nonnull align 8 dereferenceable(9) @_ZL24CategorizedNormalPrinter)
  br label %if.end13

if.else7:                                         ; preds = %land.lhs.true4, %if.else
  %4 = load i8, ptr %Hidden.addr, align 1
  %tobool8 = trunc i8 %4 to i1
  br i1 %tobool8, label %land.lhs.true9, label %if.else12

land.lhs.true9:                                   ; preds = %if.else7
  %5 = load i8, ptr %Categorized.addr, align 1
  %tobool10 = trunc i8 %5 to i1
  br i1 %tobool10, label %if.else12, label %if.then11

if.then11:                                        ; preds = %land.lhs.true9
  call void @_ZN12_GLOBAL__N_111HelpPrinter9printHelpEv(ptr noundef nonnull align 8 dereferenceable(9) @_ZL26UncategorizedHiddenPrinter)
  br label %if.end

if.else12:                                        ; preds = %land.lhs.true9, %if.else7
  call void @_ZN12_GLOBAL__N_111HelpPrinter9printHelpEv(ptr noundef nonnull align 8 dereferenceable(9) @_ZL24CategorizedHiddenPrinter)
  br label %if.end

if.end:                                           ; preds = %if.else12, %if.then11
  br label %if.end13

if.end13:                                         ; preds = %if.end, %if.then6
  br label %if.end14

if.end14:                                         ; preds = %if.end13, %if.then
  ret void
}