; Function Attrs: mustprogress nounwind uwtable
define hidden void @_ZN4llvh2cl16PrintHelpMessageEbb(i1 noundef zeroext %Hidden, i1 noundef zeroext %Categorized) local_unnamed_addr #0 {
entry:
  %brmerge = or i1 %Hidden, %Categorized
  br i1 %brmerge, label %if.else, label %if.end14

if.else:                                          ; preds = %entry
  %Categorized.not = xor i1 %Categorized, true
  %brmerge5 = or i1 %Categorized.not, %Hidden
  br i1 %brmerge5, label %if.else7, label %if.end14

if.else7:                                         ; preds = %if.else
  %Hidden.not = xor i1 %Hidden, true
  %brmerge6 = or i1 %Hidden.not, %Categorized
  %_ZL24CategorizedHiddenPrinter._ZL26UncategorizedHiddenPrinter = select i1 %brmerge6, ptr @_ZL24CategorizedHiddenPrinter, ptr @_ZL26UncategorizedHiddenPrinter
  br label %if.end14

if.end14:                                         ; preds = %if.else7, %if.else, %entry
  %_ZL24CategorizedNormalPrinter.sink = phi ptr [ @_ZL26UncategorizedNormalPrinter, %entry ], [ @_ZL24CategorizedNormalPrinter, %if.else ], [ %_ZL24CategorizedHiddenPrinter._ZL26UncategorizedHiddenPrinter, %if.else7 ]
  tail call fastcc void @_ZN12_GLOBAL__N_111HelpPrinter9printHelpEv(ptr noundef nonnull align 8 dereferenceable(9) %_ZL24CategorizedNormalPrinter.sink)
  ret void
}